ARM GAS  /var/folders/c7/njqfq59n5tx5xn87mx7dh9jh0000gn/T//ccsyM1Qb.s 			page 1


   1              		.cpu cortex-m4
   2              		.eabi_attribute 27, 1
   3              		.eabi_attribute 28, 1
   4              		.eabi_attribute 20, 1
   5              		.eabi_attribute 21, 1
   6              		.eabi_attribute 23, 3
   7              		.eabi_attribute 24, 1
   8              		.eabi_attribute 25, 1
   9              		.eabi_attribute 26, 1
  10              		.eabi_attribute 30, 1
  11              		.eabi_attribute 34, 1
  12              		.eabi_attribute 18, 4
  13              		.file	"main.c"
  14              		.text
  15              	.Ltext0:
  16              		.cfi_sections	.debug_frame
  17              		.section	.text.SystemClock_Config,"ax",%progbits
  18              		.align	1
  19              		.global	SystemClock_Config
  20              		.syntax unified
  21              		.thumb
  22              		.thumb_func
  23              		.fpu fpv4-sp-d16
  25              	SystemClock_Config:
  26              	.LFB127:
  27              		.file 1 "Src/main.c"
   1:Src/main.c    **** #include "main.h"
   2:Src/main.c    **** #include "tim.h"
   3:Src/main.c    **** #include "gpio.h"
   4:Src/main.c    **** 
   5:Src/main.c    **** #include <stdint.h>
   6:Src/main.c    **** #include <stdbool.h>
   7:Src/main.c    **** #include <stdlib.h>
   8:Src/main.c    **** #include <string.h>
   9:Src/main.c    **** #include "variables.h"
  10:Src/main.c    **** #include "freq_calc.h"
  11:Src/main.c    **** #include "osc_calc.h"
  12:Src/main.c    **** 
  13:Src/main.c    **** void SystemClock_Config(void);
  14:Src/main.c    **** int32_t map(int32_t x, int32_t in_min, int32_t in_max, int32_t out_min, int32_t out_max);
  15:Src/main.c    **** 
  16:Src/main.c    **** int main(void)
  17:Src/main.c    **** {
  18:Src/main.c    **** 
  19:Src/main.c    ****   HAL_Init();
  20:Src/main.c    ****   SystemClock_Config();
  21:Src/main.c    ****   MX_GPIO_Init();
  22:Src/main.c    ****   MX_TIM1_Init();
  23:Src/main.c    **** 
  24:Src/main.c    ****   int freq = 83999;
  25:Src/main.c    ****   HAL_TIM_OC_Start(&htim1, TIM_CHANNEL_1);
  26:Src/main.c    ****   //Just for testing if the frequency is set proprely
  27:Src/main.c    ****   TIM1->PSC = 0;
  28:Src/main.c    ****   TIM1->ARR = freq/2;
  29:Src/main.c    **** 
  30:Src/main.c    ****   max_freq_ARR = CPU_frequency / BBD_max_freq;
  31:Src/main.c    ****   min_freq_ARR = CPU_frequency / BBD_min_freq;
ARM GAS  /var/folders/c7/njqfq59n5tx5xn87mx7dh9jh0000gn/T//ccsyM1Qb.s 			page 2


  32:Src/main.c    **** 
  33:Src/main.c    ****   OSC_pulse_width_in_cycles_50 = 0;
  34:Src/main.c    ****   OSC_pulse_width_in_cycles_25 = 0 ;
  35:Src/main.c    ****   OSC_pulse_width_in_cycles_12 = 0;
  36:Src/main.c    ****   OSC_sample_counter = 0;
  37:Src/main.c    ****   OSC_samples_per_cycle = 0;
  38:Src/main.c    ****   OSC_osc_out = 0;
  39:Src/main.c    ****   OSC_wave_type = 0;
  40:Src/main.c    ****   OSC_frequency = 1;
  41:Src/main.c    **** 
  42:Src/main.c    ****   freq_calc();
  43:Src/main.c    **** 
  44:Src/main.c    ****   //Core cycles counter
  45:Src/main.c    ****   CoreDebug->DEMCR |= CoreDebug_DEMCR_TRCENA_Msk;
  46:Src/main.c    ****   DWT->CYCCNT = 0;
  47:Src/main.c    ****   DWT->CTRL |= DWT_CTRL_CYCCNTENA_Msk;
  48:Src/main.c    **** 
  49:Src/main.c    **** 
  50:Src/main.c    ****   while (1)
  51:Src/main.c    ****   {
  52:Src/main.c    **** 
  53:Src/main.c    ****     if ((DWT->CYCCNT - UI_timer) > 84000) {
  54:Src/main.c    ****       UI_timer = DWT->CYCCNT;
  55:Src/main.c    **** 
  56:Src/main.c    ****       LD2_GPIO_Port->ODR ^= LD2_Pin;
  57:Src/main.c    **** 
  58:Src/main.c    ****       //And set the new timer frequencies
  59:Src/main.c    ****       //PWM alwayas 50%
  60:Src/main.c    ****       TIM1->ARR = overflow_R/2;
  61:Src/main.c    **** 
  62:Src/main.c    ****       //Calculating the LFO value
  63:Src/main.c    ****       osc_calc();
  64:Src/main.c    ****       overflow_R = map(OSC_osc_out, 0, dac_max, max_freq_ARR, min_freq_ARR);
  65:Src/main.c    **** 
  66:Src/main.c    ****       /*
  67:Src/main.c    ****       out_debug[debug_counter] = ccr1;
  68:Src/main.c    ****       debug_counter++;
  69:Src/main.c    ****       if(debug_counter == 4000){
  70:Src/main.c    ****       for(int i=0; i < sizeof(out_debug)/2; i++){
  71:Src/main.c    ****     }
  72:Src/main.c    ****     debug_counter = 0;
  73:Src/main.c    ****   }
  74:Src/main.c    ****   */
  75:Src/main.c    **** 
  76:Src/main.c    **** }
  77:Src/main.c    **** }
  78:Src/main.c    **** }
  79:Src/main.c    **** 
  80:Src/main.c    **** 
  81:Src/main.c    **** void SystemClock_Config(void)
  82:Src/main.c    **** {
  28              		.loc 1 82 0
  29              		.cfi_startproc
  30              		@ args = 0, pretend = 0, frame = 80
  31              		@ frame_needed = 0, uses_anonymous_args = 0
  32 0000 30B5     		push	{r4, r5, lr}
  33              	.LCFI0:
ARM GAS  /var/folders/c7/njqfq59n5tx5xn87mx7dh9jh0000gn/T//ccsyM1Qb.s 			page 3


  34              		.cfi_def_cfa_offset 12
  35              		.cfi_offset 4, -12
  36              		.cfi_offset 5, -8
  37              		.cfi_offset 14, -4
  38 0002 95B0     		sub	sp, sp, #84
  39              	.LCFI1:
  40              		.cfi_def_cfa_offset 96
  83:Src/main.c    ****   RCC_OscInitTypeDef RCC_OscInitStruct = {0};
  41              		.loc 1 83 0
  42 0004 3022     		movs	r2, #48
  43 0006 0021     		movs	r1, #0
  44 0008 08A8     		add	r0, sp, #32
  45 000a FFF7FEFF 		bl	memset
  46              	.LVL0:
  84:Src/main.c    ****   RCC_ClkInitTypeDef RCC_ClkInitStruct = {0};
  47              		.loc 1 84 0
  48 000e 0024     		movs	r4, #0
  49 0010 0394     		str	r4, [sp, #12]
  50 0012 0494     		str	r4, [sp, #16]
  51 0014 0594     		str	r4, [sp, #20]
  52 0016 0694     		str	r4, [sp, #24]
  53 0018 0794     		str	r4, [sp, #28]
  54              	.LBB2:
  85:Src/main.c    **** 
  86:Src/main.c    ****   /**Configure the main internal regulator output voltage
  87:Src/main.c    ****   */
  88:Src/main.c    ****   __HAL_RCC_PWR_CLK_ENABLE();
  55              		.loc 1 88 0
  56 001a 0194     		str	r4, [sp, #4]
  57 001c 1A4B     		ldr	r3, .L3
  58 001e 1A6C     		ldr	r2, [r3, #64]
  59 0020 42F08052 		orr	r2, r2, #268435456
  60 0024 1A64     		str	r2, [r3, #64]
  61 0026 1B6C     		ldr	r3, [r3, #64]
  62 0028 03F08053 		and	r3, r3, #268435456
  63 002c 0193     		str	r3, [sp, #4]
  64 002e 019B     		ldr	r3, [sp, #4]
  65              	.LBE2:
  66              	.LBB3:
  89:Src/main.c    ****   __HAL_PWR_VOLTAGESCALING_CONFIG(PWR_REGULATOR_VOLTAGE_SCALE1);
  67              		.loc 1 89 0
  68 0030 0294     		str	r4, [sp, #8]
  69 0032 164B     		ldr	r3, .L3+4
  70 0034 1A68     		ldr	r2, [r3]
  71 0036 42F44042 		orr	r2, r2, #49152
  72 003a 1A60     		str	r2, [r3]
  73 003c 1B68     		ldr	r3, [r3]
  74 003e 03F44043 		and	r3, r3, #49152
  75 0042 0293     		str	r3, [sp, #8]
  76 0044 029B     		ldr	r3, [sp, #8]
  77              	.LBE3:
  90:Src/main.c    ****   /**Initializes the CPU, AHB and APB busses clocks
  91:Src/main.c    ****   */
  92:Src/main.c    ****   RCC_OscInitStruct.OscillatorType = RCC_OSCILLATORTYPE_HSI;
  78              		.loc 1 92 0
  79 0046 0225     		movs	r5, #2
  80 0048 0895     		str	r5, [sp, #32]
ARM GAS  /var/folders/c7/njqfq59n5tx5xn87mx7dh9jh0000gn/T//ccsyM1Qb.s 			page 4


  93:Src/main.c    ****   RCC_OscInitStruct.HSIState = RCC_HSI_ON;
  81              		.loc 1 93 0
  82 004a 0123     		movs	r3, #1
  83 004c 0B93     		str	r3, [sp, #44]
  94:Src/main.c    ****   RCC_OscInitStruct.HSICalibrationValue = RCC_HSICALIBRATION_DEFAULT;
  84              		.loc 1 94 0
  85 004e 1023     		movs	r3, #16
  86 0050 0C93     		str	r3, [sp, #48]
  95:Src/main.c    ****   RCC_OscInitStruct.PLL.PLLState = RCC_PLL_ON;
  87              		.loc 1 95 0
  88 0052 0E95     		str	r5, [sp, #56]
  96:Src/main.c    ****   RCC_OscInitStruct.PLL.PLLSource = RCC_PLLSOURCE_HSI;
  89              		.loc 1 96 0
  90 0054 0F94     		str	r4, [sp, #60]
  97:Src/main.c    ****   RCC_OscInitStruct.PLL.PLLM = 16;
  91              		.loc 1 97 0
  92 0056 1093     		str	r3, [sp, #64]
  98:Src/main.c    ****   RCC_OscInitStruct.PLL.PLLN = 336;
  93              		.loc 1 98 0
  94 0058 4FF4A873 		mov	r3, #336
  95 005c 1193     		str	r3, [sp, #68]
  99:Src/main.c    ****   RCC_OscInitStruct.PLL.PLLP = RCC_PLLP_DIV4;
  96              		.loc 1 99 0
  97 005e 0423     		movs	r3, #4
  98 0060 1293     		str	r3, [sp, #72]
 100:Src/main.c    ****   RCC_OscInitStruct.PLL.PLLQ = 4;
  99              		.loc 1 100 0
 100 0062 1393     		str	r3, [sp, #76]
 101:Src/main.c    ****   if (HAL_RCC_OscConfig(&RCC_OscInitStruct) != HAL_OK)
 101              		.loc 1 101 0
 102 0064 08A8     		add	r0, sp, #32
 103 0066 FFF7FEFF 		bl	HAL_RCC_OscConfig
 104              	.LVL1:
 102:Src/main.c    ****   {
 103:Src/main.c    ****     Error_Handler();
 104:Src/main.c    ****   }
 105:Src/main.c    ****   /**Initializes the CPU, AHB and APB busses clocks
 106:Src/main.c    ****   */
 107:Src/main.c    ****   RCC_ClkInitStruct.ClockType = RCC_CLOCKTYPE_HCLK|RCC_CLOCKTYPE_SYSCLK
 105              		.loc 1 107 0
 106 006a 0F23     		movs	r3, #15
 107 006c 0393     		str	r3, [sp, #12]
 108:Src/main.c    ****   |RCC_CLOCKTYPE_PCLK1|RCC_CLOCKTYPE_PCLK2;
 109:Src/main.c    ****   RCC_ClkInitStruct.SYSCLKSource = RCC_SYSCLKSOURCE_PLLCLK;
 108              		.loc 1 109 0
 109 006e 0495     		str	r5, [sp, #16]
 110:Src/main.c    ****   RCC_ClkInitStruct.AHBCLKDivider = RCC_SYSCLK_DIV1;
 110              		.loc 1 110 0
 111 0070 0594     		str	r4, [sp, #20]
 111:Src/main.c    ****   RCC_ClkInitStruct.APB1CLKDivider = RCC_HCLK_DIV2;
 112              		.loc 1 111 0
 113 0072 4FF48053 		mov	r3, #4096
 114 0076 0693     		str	r3, [sp, #24]
 112:Src/main.c    ****   RCC_ClkInitStruct.APB2CLKDivider = RCC_HCLK_DIV1;
 115              		.loc 1 112 0
 116 0078 0794     		str	r4, [sp, #28]
 113:Src/main.c    **** 
ARM GAS  /var/folders/c7/njqfq59n5tx5xn87mx7dh9jh0000gn/T//ccsyM1Qb.s 			page 5


 114:Src/main.c    ****   if (HAL_RCC_ClockConfig(&RCC_ClkInitStruct, FLASH_LATENCY_2) != HAL_OK)
 117              		.loc 1 114 0
 118 007a 2946     		mov	r1, r5
 119 007c 03A8     		add	r0, sp, #12
 120 007e FFF7FEFF 		bl	HAL_RCC_ClockConfig
 121              	.LVL2:
 115:Src/main.c    ****   {
 116:Src/main.c    ****     Error_Handler();
 117:Src/main.c    ****   }
 118:Src/main.c    **** }
 122              		.loc 1 118 0
 123 0082 15B0     		add	sp, sp, #84
 124              	.LCFI2:
 125              		.cfi_def_cfa_offset 12
 126              		@ sp needed
 127 0084 30BD     		pop	{r4, r5, pc}
 128              	.L4:
 129 0086 00BF     		.align	2
 130              	.L3:
 131 0088 00380240 		.word	1073887232
 132 008c 00700040 		.word	1073770496
 133              		.cfi_endproc
 134              	.LFE127:
 136              		.section	.text.map,"ax",%progbits
 137              		.align	1
 138              		.global	map
 139              		.syntax unified
 140              		.thumb
 141              		.thumb_func
 142              		.fpu fpv4-sp-d16
 144              	map:
 145              	.LFB128:
 119:Src/main.c    **** 
 120:Src/main.c    **** /* USER CODE BEGIN 4 */
 121:Src/main.c    **** int32_t map(int32_t x, int32_t in_min, int32_t in_max, int32_t out_min, int32_t out_max){
 146              		.loc 1 121 0
 147              		.cfi_startproc
 148              		@ args = 4, pretend = 0, frame = 0
 149              		@ frame_needed = 0, uses_anonymous_args = 0
 150              		@ link register save eliminated.
 151              	.LVL3:
 152 0000 10B4     		push	{r4}
 153              	.LCFI3:
 154              		.cfi_def_cfa_offset 4
 155              		.cfi_offset 4, -4
 122:Src/main.c    ****   return (x - in_min) * (out_max - out_min) / (in_max - in_min) + out_min;
 156              		.loc 1 122 0
 157 0002 401A     		subs	r0, r0, r1
 158              	.LVL4:
 159 0004 019C     		ldr	r4, [sp, #4]
 160 0006 E41A     		subs	r4, r4, r3
 161 0008 04FB00F0 		mul	r0, r4, r0
 162 000c 521A     		subs	r2, r2, r1
 163              	.LVL5:
 164 000e 90FBF2F0 		sdiv	r0, r0, r2
 123:Src/main.c    **** }
 165              		.loc 1 123 0
ARM GAS  /var/folders/c7/njqfq59n5tx5xn87mx7dh9jh0000gn/T//ccsyM1Qb.s 			page 6


 166 0012 1844     		add	r0, r0, r3
 167 0014 5DF8044B 		ldr	r4, [sp], #4
 168              	.LCFI4:
 169              		.cfi_restore 4
 170              		.cfi_def_cfa_offset 0
 171              	.LVL6:
 172 0018 7047     		bx	lr
 173              		.cfi_endproc
 174              	.LFE128:
 176              		.section	.text.main,"ax",%progbits
 177              		.align	1
 178              		.global	main
 179              		.syntax unified
 180              		.thumb
 181              		.thumb_func
 182              		.fpu fpv4-sp-d16
 184              	main:
 185              	.LFB126:
  17:Src/main.c    **** 
 186              		.loc 1 17 0
 187              		.cfi_startproc
 188              		@ args = 0, pretend = 0, frame = 0
 189              		@ frame_needed = 0, uses_anonymous_args = 0
 190 0000 10B5     		push	{r4, lr}
 191              	.LCFI5:
 192              		.cfi_def_cfa_offset 8
 193              		.cfi_offset 4, -8
 194              		.cfi_offset 14, -4
 195 0002 82B0     		sub	sp, sp, #8
 196              	.LCFI6:
 197              		.cfi_def_cfa_offset 16
  19:Src/main.c    ****   SystemClock_Config();
 198              		.loc 1 19 0
 199 0004 FFF7FEFF 		bl	HAL_Init
 200              	.LVL7:
  20:Src/main.c    ****   MX_GPIO_Init();
 201              		.loc 1 20 0
 202 0008 FFF7FEFF 		bl	SystemClock_Config
 203              	.LVL8:
  21:Src/main.c    ****   MX_TIM1_Init();
 204              		.loc 1 21 0
 205 000c FFF7FEFF 		bl	MX_GPIO_Init
 206              	.LVL9:
  22:Src/main.c    **** 
 207              		.loc 1 22 0
 208 0010 FFF7FEFF 		bl	MX_TIM1_Init
 209              	.LVL10:
  25:Src/main.c    ****   //Just for testing if the frequency is set proprely
 210              		.loc 1 25 0
 211 0014 0021     		movs	r1, #0
 212 0016 2F48     		ldr	r0, .L11
 213 0018 FFF7FEFF 		bl	HAL_TIM_OC_Start
 214              	.LVL11:
  27:Src/main.c    ****   TIM1->ARR = freq/2;
 215              		.loc 1 27 0
 216 001c 2E4B     		ldr	r3, .L11+4
 217 001e 0024     		movs	r4, #0
ARM GAS  /var/folders/c7/njqfq59n5tx5xn87mx7dh9jh0000gn/T//ccsyM1Qb.s 			page 7


 218 0020 9C62     		str	r4, [r3, #40]
  28:Src/main.c    **** 
 219              		.loc 1 28 0
 220 0022 4AF20F42 		movw	r2, #41999
 221 0026 DA62     		str	r2, [r3, #44]
  30:Src/main.c    ****   min_freq_ARR = CPU_frequency / BBD_min_freq;
 222              		.loc 1 30 0
 223 0028 2C4B     		ldr	r3, .L11+8
 224 002a 1B68     		ldr	r3, [r3]
 225 002c 2C4A     		ldr	r2, .L11+12
 226 002e 1268     		ldr	r2, [r2]
 227 0030 B3FBF2F2 		udiv	r2, r3, r2
 228 0034 2B49     		ldr	r1, .L11+16
 229 0036 0A60     		str	r2, [r1]
  31:Src/main.c    **** 
 230              		.loc 1 31 0
 231 0038 2B4A     		ldr	r2, .L11+20
 232 003a 1268     		ldr	r2, [r2]
 233 003c B3FBF2F3 		udiv	r3, r3, r2
 234 0040 2A4A     		ldr	r2, .L11+24
 235 0042 1360     		str	r3, [r2]
  33:Src/main.c    ****   OSC_pulse_width_in_cycles_25 = 0 ;
 236              		.loc 1 33 0
 237 0044 2A4B     		ldr	r3, .L11+28
 238 0046 1C60     		str	r4, [r3]
  34:Src/main.c    ****   OSC_pulse_width_in_cycles_12 = 0;
 239              		.loc 1 34 0
 240 0048 2A4B     		ldr	r3, .L11+32
 241 004a 1C60     		str	r4, [r3]
  35:Src/main.c    ****   OSC_sample_counter = 0;
 242              		.loc 1 35 0
 243 004c 2A4B     		ldr	r3, .L11+36
 244 004e 1C60     		str	r4, [r3]
  36:Src/main.c    ****   OSC_samples_per_cycle = 0;
 245              		.loc 1 36 0
 246 0050 2A4B     		ldr	r3, .L11+40
 247 0052 1C60     		str	r4, [r3]
  37:Src/main.c    ****   OSC_osc_out = 0;
 248              		.loc 1 37 0
 249 0054 2A4B     		ldr	r3, .L11+44
 250 0056 1C60     		str	r4, [r3]
  38:Src/main.c    ****   OSC_wave_type = 0;
 251              		.loc 1 38 0
 252 0058 2A4B     		ldr	r3, .L11+48
 253 005a 1C60     		str	r4, [r3]
  39:Src/main.c    ****   OSC_frequency = 1;
 254              		.loc 1 39 0
 255 005c 2A4B     		ldr	r3, .L11+52
 256 005e 1C70     		strb	r4, [r3]
  40:Src/main.c    **** 
 257              		.loc 1 40 0
 258 0060 2A4B     		ldr	r3, .L11+56
 259 0062 4FF07E52 		mov	r2, #1065353216
 260 0066 1A60     		str	r2, [r3]	@ float
  42:Src/main.c    **** 
 261              		.loc 1 42 0
 262 0068 FFF7FEFF 		bl	freq_calc
ARM GAS  /var/folders/c7/njqfq59n5tx5xn87mx7dh9jh0000gn/T//ccsyM1Qb.s 			page 8


 263              	.LVL12:
  45:Src/main.c    ****   DWT->CYCCNT = 0;
 264              		.loc 1 45 0
 265 006c 284A     		ldr	r2, .L11+60
 266 006e D368     		ldr	r3, [r2, #12]
 267 0070 43F08073 		orr	r3, r3, #16777216
 268 0074 D360     		str	r3, [r2, #12]
  46:Src/main.c    ****   DWT->CTRL |= DWT_CTRL_CYCCNTENA_Msk;
 269              		.loc 1 46 0
 270 0076 274B     		ldr	r3, .L11+64
 271 0078 5C60     		str	r4, [r3, #4]
  47:Src/main.c    **** 
 272              		.loc 1 47 0
 273 007a 1A68     		ldr	r2, [r3]
 274 007c 42F00102 		orr	r2, r2, #1
 275 0080 1A60     		str	r2, [r3]
 276              	.L8:
  53:Src/main.c    ****       UI_timer = DWT->CYCCNT;
 277              		.loc 1 53 0
 278 0082 244B     		ldr	r3, .L11+64
 279 0084 5B68     		ldr	r3, [r3, #4]
 280 0086 244A     		ldr	r2, .L11+68
 281 0088 1268     		ldr	r2, [r2]
 282 008a 9B1A     		subs	r3, r3, r2
 283 008c 234A     		ldr	r2, .L11+72
 284 008e 9342     		cmp	r3, r2
 285 0090 F7D9     		bls	.L8
  54:Src/main.c    **** 
 286              		.loc 1 54 0
 287 0092 204B     		ldr	r3, .L11+64
 288 0094 5A68     		ldr	r2, [r3, #4]
 289 0096 204B     		ldr	r3, .L11+68
 290 0098 1A60     		str	r2, [r3]
  56:Src/main.c    **** 
 291              		.loc 1 56 0
 292 009a 214A     		ldr	r2, .L11+76
 293 009c 5369     		ldr	r3, [r2, #20]
 294 009e 83F02003 		eor	r3, r3, #32
 295 00a2 5361     		str	r3, [r2, #20]
  60:Src/main.c    **** 
 296              		.loc 1 60 0
 297 00a4 1F4C     		ldr	r4, .L11+80
 298 00a6 2368     		ldr	r3, [r4]
 299 00a8 03EBD373 		add	r3, r3, r3, lsr #31
 300 00ac 5B10     		asrs	r3, r3, #1
 301 00ae A2F58032 		sub	r2, r2, #65536
 302 00b2 D362     		str	r3, [r2, #44]
  63:Src/main.c    ****       overflow_R = map(OSC_osc_out, 0, dac_max, max_freq_ARR, min_freq_ARR);
 303              		.loc 1 63 0
 304 00b4 FFF7FEFF 		bl	osc_calc
 305              	.LVL13:
  64:Src/main.c    **** 
 306              		.loc 1 64 0
 307 00b8 0A4B     		ldr	r3, .L11+16
 308 00ba 1B68     		ldr	r3, [r3]
 309 00bc 1A4A     		ldr	r2, .L11+84
 310 00be 1268     		ldr	r2, [r2]
ARM GAS  /var/folders/c7/njqfq59n5tx5xn87mx7dh9jh0000gn/T//ccsyM1Qb.s 			page 9


 311 00c0 1049     		ldr	r1, .L11+48
 312 00c2 0868     		ldr	r0, [r1]
 313 00c4 0949     		ldr	r1, .L11+24
 314 00c6 0968     		ldr	r1, [r1]
 315 00c8 0091     		str	r1, [sp]
 316 00ca 0021     		movs	r1, #0
 317 00cc FFF7FEFF 		bl	map
 318              	.LVL14:
 319 00d0 2060     		str	r0, [r4]
 320 00d2 D6E7     		b	.L8
 321              	.L12:
 322              		.align	2
 323              	.L11:
 324 00d4 00000000 		.word	htim1
 325 00d8 00000140 		.word	1073807360
 326 00dc 00000000 		.word	.LANCHOR0
 327 00e0 00000000 		.word	.LANCHOR1
 328 00e4 00000000 		.word	.LANCHOR2
 329 00e8 00000000 		.word	.LANCHOR3
 330 00ec 00000000 		.word	.LANCHOR4
 331 00f0 00000000 		.word	OSC_pulse_width_in_cycles_50
 332 00f4 00000000 		.word	OSC_pulse_width_in_cycles_25
 333 00f8 00000000 		.word	OSC_pulse_width_in_cycles_12
 334 00fc 00000000 		.word	OSC_sample_counter
 335 0100 00000000 		.word	OSC_samples_per_cycle
 336 0104 00000000 		.word	OSC_osc_out
 337 0108 00000000 		.word	OSC_wave_type
 338 010c 00000000 		.word	OSC_frequency
 339 0110 F0ED00E0 		.word	-536810000
 340 0114 001000E0 		.word	-536866816
 341 0118 00000000 		.word	.LANCHOR5
 342 011c 20480100 		.word	84000
 343 0120 00000240 		.word	1073872896
 344 0124 00000000 		.word	.LANCHOR6
 345 0128 00000000 		.word	.LANCHOR7
 346              		.cfi_endproc
 347              	.LFE126:
 349              		.section	.text.Error_Handler,"ax",%progbits
 350              		.align	1
 351              		.global	Error_Handler
 352              		.syntax unified
 353              		.thumb
 354              		.thumb_func
 355              		.fpu fpv4-sp-d16
 357              	Error_Handler:
 358              	.LFB129:
 124:Src/main.c    **** 
 125:Src/main.c    **** void Error_Handler(void)
 126:Src/main.c    **** {
 359              		.loc 1 126 0
 360              		.cfi_startproc
 361              		@ args = 0, pretend = 0, frame = 0
 362              		@ frame_needed = 0, uses_anonymous_args = 0
 363              		@ link register save eliminated.
 127:Src/main.c    **** 
 128:Src/main.c    **** }
 364              		.loc 1 128 0
ARM GAS  /var/folders/c7/njqfq59n5tx5xn87mx7dh9jh0000gn/T//ccsyM1Qb.s 			page 10


 365 0000 7047     		bx	lr
 366              		.cfi_endproc
 367              	.LFE129:
 369              		.global	led_index
 370              		.global	led_status
 371              		.global	UI_timer
 372              		.global	switch_index
 373              		.global	switch_readings
 374              		.global	switch_status
 375              		.global	switch_debounce
 376              		.global	PREVIOUS_switch_reading
 377              		.global	switch_reading
 378              		.global	new_switch_reading
 379              		.global	pots_threshold
 380              		.global	new_pots_values
 381              		.global	pots_ticks
 382              		.global	old_pot_reading_modulated
 383              		.global	pot_reading_modulated
 384              		.global	old_pot_reading
 385              		.global	pot_summing
 386              		.global	pot_reading_reduced
 387              		.global	pot_reading
 388              		.global	new_pots_reading
 389              		.global	bit_reduction
 390              		.global	round_counter
 391              		.global	mux_counter
 392              		.global	pots_index
 393              		.global	new_CV_values_number
 394              		.global	adc_threshold
 395              		.global	new_CV_values
 396              		.global	new_CV_reading
 397              		.global	adc_buffer_counter
 398              		.global	previous_cv_reading
 399              		.global	cv_average
 400              		.global	cv_reading_memory
 401              		.global	cv_reading
 402              		.global	adc_buffer
 403              		.comm	OSC_frequency_range,1,1
 404              		.comm	OSC_frequency,4,4
 405              		.comm	OSC_wave_type,1,1
 406              		.global	debug_counter
 407              		.comm	out_debug,8000,4
 408              		.comm	old_OSC_osc_out,4,4
 409              		.comm	OSC_osc_out,4,4
 410              		.comm	OSC_samples_per_cycle,4,4
 411              		.comm	OSC_sample_counter,4,4
 412              		.comm	OSC_pulse_width_in_cycles_12,4,4
 413              		.comm	OSC_pulse_width_in_cycles_25,4,4
 414              		.comm	OSC_pulse_width_in_cycles_50,4,4
 415              		.global	dac_max_div_3_times_2
 416              		.global	dac_max_div_3
 417              		.global	dac_max
 418              		.global	mode
 419              		.global	flip_flop
 420              		.global	display
 421              		.global	new_frequency
 422              		.global	overflow_R
ARM GAS  /var/folders/c7/njqfq59n5tx5xn87mx7dh9jh0000gn/T//ccsyM1Qb.s 			page 11


 423              		.global	overflow_L
 424              		.global	min_freq_ARR
 425              		.global	max_freq_ARR
 426              		.global	CPU_frequency
 427              		.global	sampling_period_in_hz
 428              		.global	BBD_max_freq
 429              		.global	BBD_min_freq
 430              		.global	resample
 431              		.global	direction
 432              		.global	time_since
 433              		.global	LFO_value
 434              		.global	reload
 435              		.comm	freq_sampl,4,4
 436              		.comm	ticks_to_us,4,4
 437              		.comm	ticks_after,4,4
 438              		.comm	ticks_before,4,4
 439              		.global	cycle_ticks
 440              		.global	debug_switches
 441              		.global	debug_adc
 442              		.global	debug_pots
 443              		.section	.bss.LFO_value,"aw",%nobits
 444              		.align	2
 447              	LFO_value:
 448 0000 00000000 		.space	4
 449              		.section	.bss.PREVIOUS_switch_reading,"aw",%nobits
 450              		.align	2
 453              	PREVIOUS_switch_reading:
 454 0000 00000000 		.space	8
 454      00000000 
 455              		.section	.bss.UI_timer,"aw",%nobits
 456              		.align	2
 457              		.set	.LANCHOR5,. + 0
 460              	UI_timer:
 461 0000 00000000 		.space	4
 462              		.section	.bss.adc_buffer,"aw",%nobits
 463              		.align	2
 466              	adc_buffer:
 467 0000 00000000 		.space	12
 467      00000000 
 467      00000000 
 468              		.section	.bss.adc_buffer_counter,"aw",%nobits
 469              		.align	2
 472              	adc_buffer_counter:
 473 0000 00000000 		.space	4
 474              		.section	.bss.cv_average,"aw",%nobits
 475              		.align	2
 478              	cv_average:
 479 0000 00000000 		.space	12
 479      00000000 
 479      00000000 
 480              		.section	.bss.cv_reading,"aw",%nobits
 481              		.align	2
 484              	cv_reading:
 485 0000 00000000 		.space	12
 485      00000000 
 485      00000000 
 486              		.section	.bss.cv_reading_memory,"aw",%nobits
ARM GAS  /var/folders/c7/njqfq59n5tx5xn87mx7dh9jh0000gn/T//ccsyM1Qb.s 			page 12


 487              		.align	2
 490              	cv_reading_memory:
 491 0000 00000000 		.space	12
 491      00000000 
 491      00000000 
 492              		.section	.bss.cycle_ticks,"aw",%nobits
 493              		.align	2
 496              	cycle_ticks:
 497 0000 00000000 		.space	4
 498              		.section	.bss.dac_max_div_3,"aw",%nobits
 499              		.align	2
 502              	dac_max_div_3:
 503 0000 00000000 		.space	4
 504              		.section	.bss.dac_max_div_3_times_2,"aw",%nobits
 505              		.align	2
 508              	dac_max_div_3_times_2:
 509 0000 00000000 		.space	4
 510              		.section	.bss.debug_counter,"aw",%nobits
 511              		.align	2
 514              	debug_counter:
 515 0000 00000000 		.space	4
 516              		.section	.bss.display,"aw",%nobits
 519              	display:
 520 0000 00       		.space	1
 521              		.section	.bss.flip_flop,"aw",%nobits
 524              	flip_flop:
 525 0000 00       		.space	1
 526              		.section	.bss.led_status,"aw",%nobits
 527              		.align	2
 530              	led_status:
 531 0000 00000000 		.space	13
 531      00000000 
 531      00000000 
 531      00
 532              		.section	.bss.max_freq_ARR,"aw",%nobits
 533              		.align	2
 534              		.set	.LANCHOR2,. + 0
 537              	max_freq_ARR:
 538 0000 00000000 		.space	4
 539              		.section	.bss.min_freq_ARR,"aw",%nobits
 540              		.align	2
 541              		.set	.LANCHOR4,. + 0
 544              	min_freq_ARR:
 545 0000 00000000 		.space	4
 546              		.section	.bss.mux_counter,"aw",%nobits
 547              		.align	1
 550              	mux_counter:
 551 0000 0000     		.space	2
 552              		.section	.bss.new_CV_reading,"aw",%nobits
 555              	new_CV_reading:
 556 0000 00       		.space	1
 557              		.section	.bss.new_CV_values,"aw",%nobits
 560              	new_CV_values:
 561 0000 00       		.space	1
 562              		.section	.bss.new_CV_values_number,"aw",%nobits
 563              		.align	2
 566              	new_CV_values_number:
ARM GAS  /var/folders/c7/njqfq59n5tx5xn87mx7dh9jh0000gn/T//ccsyM1Qb.s 			page 13


 567 0000 00000000 		.space	8
 567      00000000 
 568              		.section	.bss.new_pots_reading,"aw",%nobits
 571              	new_pots_reading:
 572 0000 00       		.space	1
 573              		.section	.bss.new_pots_values,"aw",%nobits
 576              	new_pots_values:
 577 0000 00       		.space	1
 578              		.section	.bss.new_switch_reading,"aw",%nobits
 581              	new_switch_reading:
 582 0000 00       		.space	1
 583              		.section	.bss.old_pot_reading_modulated,"aw",%nobits
 584              		.align	2
 587              	old_pot_reading_modulated:
 588 0000 00000000 		.space	16
 588      00000000 
 588      00000000 
 588      00000000 
 589              		.section	.bss.pot_reading,"aw",%nobits
 590              		.align	2
 593              	pot_reading:
 594 0000 00000000 		.space	16
 594      00000000 
 594      00000000 
 594      00000000 
 595              		.section	.bss.pot_reading_modulated,"aw",%nobits
 596              		.align	2
 599              	pot_reading_modulated:
 600 0000 00000000 		.space	16
 600      00000000 
 600      00000000 
 600      00000000 
 601              		.section	.bss.pot_reading_reduced,"aw",%nobits
 602              		.align	2
 605              	pot_reading_reduced:
 606 0000 00000000 		.space	16
 606      00000000 
 606      00000000 
 606      00000000 
 607              		.section	.bss.pot_summing,"aw",%nobits
 608              		.align	2
 611              	pot_summing:
 612 0000 00000000 		.space	16
 612      00000000 
 612      00000000 
 612      00000000 
 613              		.section	.bss.pots_ticks,"aw",%nobits
 614              		.align	2
 617              	pots_ticks:
 618 0000 00000000 		.space	4
 619              		.section	.bss.previous_cv_reading,"aw",%nobits
 620              		.align	2
 623              	previous_cv_reading:
 624 0000 00000000 		.space	12
 624      00000000 
 624      00000000 
 625              		.section	.bss.reload,"aw",%nobits
ARM GAS  /var/folders/c7/njqfq59n5tx5xn87mx7dh9jh0000gn/T//ccsyM1Qb.s 			page 14


 628              	reload:
 629 0000 00       		.space	1
 630              		.section	.bss.resample,"aw",%nobits
 633              	resample:
 634 0000 00       		.space	1
 635              		.section	.bss.round_counter,"aw",%nobits
 636              		.align	1
 639              	round_counter:
 640 0000 0000     		.space	2
 641              		.section	.bss.switch_debounce,"aw",%nobits
 642              		.align	2
 645              	switch_debounce:
 646 0000 00000000 		.space	32
 646      00000000 
 646      00000000 
 646      00000000 
 646      00000000 
 647              		.section	.bss.switch_reading,"aw",%nobits
 648              		.align	2
 651              	switch_reading:
 652 0000 00000000 		.space	8
 652      00000000 
 653              		.section	.bss.switch_readings,"aw",%nobits
 656              	switch_readings:
 657 0000 00       		.space	1
 658              		.section	.bss.switch_status,"aw",%nobits
 659              		.align	2
 662              	switch_status:
 663 0000 00000000 		.space	8
 663      00000000 
 664              		.section	.bss.time_since,"aw",%nobits
 665              		.align	2
 668              	time_since:
 669 0000 00000000 		.space	4
 670              		.section	.data.BBD_max_freq,"aw",%progbits
 671              		.align	2
 672              		.set	.LANCHOR1,. + 0
 675              	BBD_max_freq:
 676 0000 80380100 		.word	80000
 677              		.section	.data.BBD_min_freq,"aw",%progbits
 678              		.align	2
 679              		.set	.LANCHOR3,. + 0
 682              	BBD_min_freq:
 683 0000 BF8B0000 		.word	35775
 684              		.section	.data.CPU_frequency,"aw",%progbits
 685              		.align	2
 686              		.set	.LANCHOR0,. + 0
 689              	CPU_frequency:
 690 0000 00A24A04 		.word	72000000
 691              		.section	.data.adc_threshold,"aw",%progbits
 692              		.align	2
 695              	adc_threshold:
 696 0000 0A000000 		.word	10
 697              		.section	.data.bit_reduction,"aw",%progbits
 698              		.align	2
 701              	bit_reduction:
 702 0000 04000000 		.word	4
ARM GAS  /var/folders/c7/njqfq59n5tx5xn87mx7dh9jh0000gn/T//ccsyM1Qb.s 			page 15


 703              		.section	.data.dac_max,"aw",%progbits
 704              		.align	2
 705              		.set	.LANCHOR7,. + 0
 708              	dac_max:
 709 0000 FF0F0000 		.word	4095
 710              		.section	.data.debug_adc,"aw",%progbits
 713              	debug_adc:
 714 0000 01       		.byte	1
 715              		.section	.data.debug_pots,"aw",%progbits
 718              	debug_pots:
 719 0000 01       		.byte	1
 720              		.section	.data.debug_switches,"aw",%progbits
 723              	debug_switches:
 724 0000 01       		.byte	1
 725              		.section	.data.direction,"aw",%progbits
 728              	direction:
 729 0000 01       		.byte	1
 730              		.section	.data.led_index,"aw",%progbits
 731              		.align	2
 734              	led_index:
 735 0000 01       		.byte	1
 736 0001 01       		.byte	1
 737 0002 01       		.byte	1
 738 0003 01       		.byte	1
 739 0004 01       		.byte	1
 740 0005 01       		.byte	1
 741 0006 01       		.byte	1
 742 0007 01       		.byte	1
 743 0008 01       		.byte	1
 744 0009 01       		.byte	1
 745 000a 01       		.byte	1
 746 000b 01       		.byte	1
 747 000c 01       		.byte	1
 748              		.section	.data.mode,"aw",%progbits
 751              	mode:
 752 0000 01       		.byte	1
 753              		.section	.data.new_frequency,"aw",%progbits
 756              	new_frequency:
 757 0000 01       		.byte	1
 758              		.section	.data.old_pot_reading,"aw",%progbits
 759              		.align	2
 762              	old_pot_reading:
 763 0000 64000000 		.word	100
 764 0004 64000000 		.word	100
 765 0008 64000000 		.word	100
 766 000c 64000000 		.word	100
 767              		.section	.data.overflow_L,"aw",%progbits
 768              		.align	2
 771              	overflow_L:
 772 0000 62030000 		.word	866
 773              		.section	.data.overflow_R,"aw",%progbits
 774              		.align	2
 775              		.set	.LANCHOR6,. + 0
 778              	overflow_R:
 779 0000 62030000 		.word	866
 780              		.section	.data.pots_index,"aw",%progbits
 781              		.align	2
ARM GAS  /var/folders/c7/njqfq59n5tx5xn87mx7dh9jh0000gn/T//ccsyM1Qb.s 			page 16


 784              	pots_index:
 785 0000 0200     		.short	2
 786 0002 0100     		.short	1
 787 0004 0000     		.short	0
 788 0006 0300     		.short	3
 789              		.section	.data.pots_threshold,"aw",%progbits
 790              		.align	1
 793              	pots_threshold:
 794 0000 0200     		.short	2
 795              		.section	.data.sampling_period_in_hz,"aw",%progbits
 796              		.align	2
 799              	sampling_period_in_hz:
 800 0000 E8030000 		.word	1000
 801              		.section	.data.switch_index,"aw",%progbits
 802              		.align	2
 805              	switch_index:
 806 0000 0200     		.short	2
 807 0002 0100     		.short	1
 808 0004 0000     		.short	0
 809 0006 0300     		.short	3
 810 0008 0500     		.short	5
 811 000a 0400     		.short	4
 812 000c 0700     		.short	7
 813 000e 0600     		.short	6
 814              		.text
 815              	.Letext0:
 816              		.file 2 "/usr/local/Cellar/gcc-arm-none-eabi/20180627/arm-none-eabi/include/machine/_default_types
 817              		.file 3 "/usr/local/Cellar/gcc-arm-none-eabi/20180627/arm-none-eabi/include/sys/_stdint.h"
 818              		.file 4 "Drivers/CMSIS/Include/core_cm4.h"
 819              		.file 5 "Drivers/CMSIS/Device/ST/STM32F4xx/Include/system_stm32f4xx.h"
 820              		.file 6 "Drivers/CMSIS/Device/ST/STM32F4xx/Include/stm32f411xe.h"
 821              		.file 7 "/usr/local/Cellar/gcc-arm-none-eabi/20180627/arm-none-eabi/include/sys/lock.h"
 822              		.file 8 "/usr/local/Cellar/gcc-arm-none-eabi/20180627/arm-none-eabi/include/sys/_types.h"
 823              		.file 9 "/usr/local/Cellar/gcc-arm-none-eabi/20180627/lib/gcc/arm-none-eabi/7.3.1/include/stddef.h
 824              		.file 10 "/usr/local/Cellar/gcc-arm-none-eabi/20180627/arm-none-eabi/include/sys/reent.h"
 825              		.file 11 "Drivers/STM32F4xx_HAL_Driver/Inc/stm32f4xx_hal_def.h"
 826              		.file 12 "Drivers/STM32F4xx_HAL_Driver/Inc/stm32f4xx_hal_rcc_ex.h"
 827              		.file 13 "Drivers/STM32F4xx_HAL_Driver/Inc/stm32f4xx_hal_rcc.h"
 828              		.file 14 "Drivers/STM32F4xx_HAL_Driver/Inc/stm32f4xx_hal_dma.h"
 829              		.file 15 "Drivers/STM32F4xx_HAL_Driver/Inc/stm32f4xx_hal_tim.h"
 830              		.file 16 "Inc/tim.h"
 831              		.file 17 "/usr/local/Cellar/gcc-arm-none-eabi/20180627/arm-none-eabi/include/stdlib.h"
 832              		.file 18 "Inc/variables.h"
 833              		.file 19 "Drivers/STM32F4xx_HAL_Driver/Inc/stm32f4xx_hal.h"
 834              		.file 20 "Inc/gpio.h"
 835              		.file 21 "Inc/freq_calc.h"
 836              		.file 22 "Inc/osc_calc.h"
 837              		.file 23 "<built-in>"
ARM GAS  /var/folders/c7/njqfq59n5tx5xn87mx7dh9jh0000gn/T//ccsyM1Qb.s 			page 17

