ARM GAS  /var/folders/c7/njqfq59n5tx5xn87mx7dh9jh0000gn/T//ccTIlyY9.s 			page 1


   1              		.cpu cortex-m4
   2              		.eabi_attribute 27, 1
   3              		.eabi_attribute 28, 1
   4              		.eabi_attribute 20, 1
   5              		.eabi_attribute 21, 1
   6              		.eabi_attribute 23, 3
   7              		.eabi_attribute 24, 1
   8              		.eabi_attribute 25, 1
   9              		.eabi_attribute 26, 1
  10              		.eabi_attribute 30, 1
  11              		.eabi_attribute 34, 1
  12              		.eabi_attribute 18, 4
  13              		.file	"usart.c"
  14              		.text
  15              	.Ltext0:
  16              		.cfi_sections	.debug_frame
  17              		.section	.text.MX_USART2_UART_Init,"ax",%progbits
  18              		.align	1
  19              		.global	MX_USART2_UART_Init
  20              		.syntax unified
  21              		.thumb
  22              		.thumb_func
  23              		.fpu fpv4-sp-d16
  25              	MX_USART2_UART_Init:
  26              	.LFB126:
  27              		.file 1 "Src/usart.c"
   1:Src/usart.c   **** /**
   2:Src/usart.c   ****   ******************************************************************************
   3:Src/usart.c   ****   * File Name          : USART.c
   4:Src/usart.c   ****   * Description        : This file provides code for the configuration
   5:Src/usart.c   ****   *                      of the USART instances.
   6:Src/usart.c   ****   ******************************************************************************
   7:Src/usart.c   ****   ** This notice applies to any and all portions of this file
   8:Src/usart.c   ****   * that are not between comment pairs USER CODE BEGIN and
   9:Src/usart.c   ****   * USER CODE END. Other portions of this file, whether 
  10:Src/usart.c   ****   * inserted by the user or by software development tools
  11:Src/usart.c   ****   * are owned by their respective copyright owners.
  12:Src/usart.c   ****   *
  13:Src/usart.c   ****   * COPYRIGHT(c) 2020 STMicroelectronics
  14:Src/usart.c   ****   *
  15:Src/usart.c   ****   * Redistribution and use in source and binary forms, with or without modification,
  16:Src/usart.c   ****   * are permitted provided that the following conditions are met:
  17:Src/usart.c   ****   *   1. Redistributions of source code must retain the above copyright notice,
  18:Src/usart.c   ****   *      this list of conditions and the following disclaimer.
  19:Src/usart.c   ****   *   2. Redistributions in binary form must reproduce the above copyright notice,
  20:Src/usart.c   ****   *      this list of conditions and the following disclaimer in the documentation
  21:Src/usart.c   ****   *      and/or other materials provided with the distribution.
  22:Src/usart.c   ****   *   3. Neither the name of STMicroelectronics nor the names of its contributors
  23:Src/usart.c   ****   *      may be used to endorse or promote products derived from this software
  24:Src/usart.c   ****   *      without specific prior written permission.
  25:Src/usart.c   ****   *
  26:Src/usart.c   ****   * THIS SOFTWARE IS PROVIDED BY THE COPYRIGHT HOLDERS AND CONTRIBUTORS "AS IS"
  27:Src/usart.c   ****   * AND ANY EXPRESS OR IMPLIED WARRANTIES, INCLUDING, BUT NOT LIMITED TO, THE
  28:Src/usart.c   ****   * IMPLIED WARRANTIES OF MERCHANTABILITY AND FITNESS FOR A PARTICULAR PURPOSE ARE
  29:Src/usart.c   ****   * DISCLAIMED. IN NO EVENT SHALL THE COPYRIGHT HOLDER OR CONTRIBUTORS BE LIABLE
  30:Src/usart.c   ****   * FOR ANY DIRECT, INDIRECT, INCIDENTAL, SPECIAL, EXEMPLARY, OR CONSEQUENTIAL
  31:Src/usart.c   ****   * DAMAGES (INCLUDING, BUT NOT LIMITED TO, PROCUREMENT OF SUBSTITUTE GOODS OR
ARM GAS  /var/folders/c7/njqfq59n5tx5xn87mx7dh9jh0000gn/T//ccTIlyY9.s 			page 2


  32:Src/usart.c   ****   * SERVICES; LOSS OF USE, DATA, OR PROFITS; OR BUSINESS INTERRUPTION) HOWEVER
  33:Src/usart.c   ****   * CAUSED AND ON ANY THEORY OF LIABILITY, WHETHER IN CONTRACT, STRICT LIABILITY,
  34:Src/usart.c   ****   * OR TORT (INCLUDING NEGLIGENCE OR OTHERWISE) ARISING IN ANY WAY OUT OF THE USE
  35:Src/usart.c   ****   * OF THIS SOFTWARE, EVEN IF ADVISED OF THE POSSIBILITY OF SUCH DAMAGE.
  36:Src/usart.c   ****   *
  37:Src/usart.c   ****   ******************************************************************************
  38:Src/usart.c   ****   */
  39:Src/usart.c   **** 
  40:Src/usart.c   **** /* Includes ------------------------------------------------------------------*/
  41:Src/usart.c   **** #include "usart.h"
  42:Src/usart.c   **** 
  43:Src/usart.c   **** /* USER CODE BEGIN 0 */
  44:Src/usart.c   **** 
  45:Src/usart.c   **** /* USER CODE END 0 */
  46:Src/usart.c   **** 
  47:Src/usart.c   **** UART_HandleTypeDef huart2;
  48:Src/usart.c   **** 
  49:Src/usart.c   **** /* USART2 init function */
  50:Src/usart.c   **** 
  51:Src/usart.c   **** void MX_USART2_UART_Init(void)
  52:Src/usart.c   **** {
  28              		.loc 1 52 0
  29              		.cfi_startproc
  30              		@ args = 0, pretend = 0, frame = 0
  31              		@ frame_needed = 0, uses_anonymous_args = 0
  32 0000 08B5     		push	{r3, lr}
  33              	.LCFI0:
  34              		.cfi_def_cfa_offset 8
  35              		.cfi_offset 3, -8
  36              		.cfi_offset 14, -4
  53:Src/usart.c   **** 
  54:Src/usart.c   ****   huart2.Instance = USART2;
  37              		.loc 1 54 0
  38 0002 0A48     		ldr	r0, .L5
  39 0004 0A4B     		ldr	r3, .L5+4
  40 0006 0360     		str	r3, [r0]
  55:Src/usart.c   ****   huart2.Init.BaudRate = 115200;
  41              		.loc 1 55 0
  42 0008 4FF4E133 		mov	r3, #115200
  43 000c 4360     		str	r3, [r0, #4]
  56:Src/usart.c   ****   huart2.Init.WordLength = UART_WORDLENGTH_8B;
  44              		.loc 1 56 0
  45 000e 0023     		movs	r3, #0
  46 0010 8360     		str	r3, [r0, #8]
  57:Src/usart.c   ****   huart2.Init.StopBits = UART_STOPBITS_1;
  47              		.loc 1 57 0
  48 0012 C360     		str	r3, [r0, #12]
  58:Src/usart.c   ****   huart2.Init.Parity = UART_PARITY_NONE;
  49              		.loc 1 58 0
  50 0014 0361     		str	r3, [r0, #16]
  59:Src/usart.c   ****   huart2.Init.Mode = UART_MODE_TX_RX;
  51              		.loc 1 59 0
  52 0016 0C22     		movs	r2, #12
  53 0018 4261     		str	r2, [r0, #20]
  60:Src/usart.c   ****   huart2.Init.HwFlowCtl = UART_HWCONTROL_NONE;
  54              		.loc 1 60 0
  55 001a 8361     		str	r3, [r0, #24]
ARM GAS  /var/folders/c7/njqfq59n5tx5xn87mx7dh9jh0000gn/T//ccTIlyY9.s 			page 3


  61:Src/usart.c   ****   huart2.Init.OverSampling = UART_OVERSAMPLING_16;
  56              		.loc 1 61 0
  57 001c C361     		str	r3, [r0, #28]
  62:Src/usart.c   ****   if (HAL_UART_Init(&huart2) != HAL_OK)
  58              		.loc 1 62 0
  59 001e FFF7FEFF 		bl	HAL_UART_Init
  60              	.LVL0:
  61 0022 00B9     		cbnz	r0, .L4
  62              	.L1:
  63:Src/usart.c   ****   {
  64:Src/usart.c   ****     Error_Handler();
  65:Src/usart.c   ****   }
  66:Src/usart.c   **** 
  67:Src/usart.c   **** }
  63              		.loc 1 67 0
  64 0024 08BD     		pop	{r3, pc}
  65              	.L4:
  64:Src/usart.c   ****   }
  66              		.loc 1 64 0
  67 0026 FFF7FEFF 		bl	Error_Handler
  68              	.LVL1:
  69              		.loc 1 67 0
  70 002a FBE7     		b	.L1
  71              	.L6:
  72              		.align	2
  73              	.L5:
  74 002c 00000000 		.word	huart2
  75 0030 00440040 		.word	1073759232
  76              		.cfi_endproc
  77              	.LFE126:
  79              		.section	.text.HAL_UART_MspInit,"ax",%progbits
  80              		.align	1
  81              		.global	HAL_UART_MspInit
  82              		.syntax unified
  83              		.thumb
  84              		.thumb_func
  85              		.fpu fpv4-sp-d16
  87              	HAL_UART_MspInit:
  88              	.LFB127:
  68:Src/usart.c   **** 
  69:Src/usart.c   **** void HAL_UART_MspInit(UART_HandleTypeDef* uartHandle)
  70:Src/usart.c   **** {
  89              		.loc 1 70 0
  90              		.cfi_startproc
  91              		@ args = 0, pretend = 0, frame = 32
  92              		@ frame_needed = 0, uses_anonymous_args = 0
  93              	.LVL2:
  94 0000 00B5     		push	{lr}
  95              	.LCFI1:
  96              		.cfi_def_cfa_offset 4
  97              		.cfi_offset 14, -4
  98 0002 89B0     		sub	sp, sp, #36
  99              	.LCFI2:
 100              		.cfi_def_cfa_offset 40
  71:Src/usart.c   **** 
  72:Src/usart.c   ****   GPIO_InitTypeDef GPIO_InitStruct = {0};
 101              		.loc 1 72 0
ARM GAS  /var/folders/c7/njqfq59n5tx5xn87mx7dh9jh0000gn/T//ccTIlyY9.s 			page 4


 102 0004 0023     		movs	r3, #0
 103 0006 0393     		str	r3, [sp, #12]
 104 0008 0493     		str	r3, [sp, #16]
 105 000a 0593     		str	r3, [sp, #20]
 106 000c 0693     		str	r3, [sp, #24]
 107 000e 0793     		str	r3, [sp, #28]
  73:Src/usart.c   ****   if(uartHandle->Instance==USART2)
 108              		.loc 1 73 0
 109 0010 0268     		ldr	r2, [r0]
 110 0012 164B     		ldr	r3, .L11
 111 0014 9A42     		cmp	r2, r3
 112 0016 02D0     		beq	.L10
 113              	.LVL3:
 114              	.L7:
  74:Src/usart.c   ****   {
  75:Src/usart.c   ****   /* USER CODE BEGIN USART2_MspInit 0 */
  76:Src/usart.c   **** 
  77:Src/usart.c   ****   /* USER CODE END USART2_MspInit 0 */
  78:Src/usart.c   ****     /* USART2 clock enable */
  79:Src/usart.c   ****     __HAL_RCC_USART2_CLK_ENABLE();
  80:Src/usart.c   ****   
  81:Src/usart.c   ****     __HAL_RCC_GPIOA_CLK_ENABLE();
  82:Src/usart.c   ****     /**USART2 GPIO Configuration    
  83:Src/usart.c   ****     PA2     ------> USART2_TX
  84:Src/usart.c   ****     PA3     ------> USART2_RX 
  85:Src/usart.c   ****     */
  86:Src/usart.c   ****     GPIO_InitStruct.Pin = USART_TX_Pin|USART_RX_Pin;
  87:Src/usart.c   ****     GPIO_InitStruct.Mode = GPIO_MODE_AF_PP;
  88:Src/usart.c   ****     GPIO_InitStruct.Pull = GPIO_PULLUP;
  89:Src/usart.c   ****     GPIO_InitStruct.Speed = GPIO_SPEED_FREQ_VERY_HIGH;
  90:Src/usart.c   ****     GPIO_InitStruct.Alternate = GPIO_AF7_USART2;
  91:Src/usart.c   ****     HAL_GPIO_Init(GPIOA, &GPIO_InitStruct);
  92:Src/usart.c   **** 
  93:Src/usart.c   ****   /* USER CODE BEGIN USART2_MspInit 1 */
  94:Src/usart.c   **** 
  95:Src/usart.c   ****   /* USER CODE END USART2_MspInit 1 */
  96:Src/usart.c   ****   }
  97:Src/usart.c   **** }
 115              		.loc 1 97 0
 116 0018 09B0     		add	sp, sp, #36
 117              	.LCFI3:
 118              		.cfi_remember_state
 119              		.cfi_def_cfa_offset 4
 120              		@ sp needed
 121 001a 5DF804FB 		ldr	pc, [sp], #4
 122              	.LVL4:
 123              	.L10:
 124              	.LCFI4:
 125              		.cfi_restore_state
 126              	.LBB2:
  79:Src/usart.c   ****   
 127              		.loc 1 79 0
 128 001e 0021     		movs	r1, #0
 129 0020 0191     		str	r1, [sp, #4]
 130 0022 03F5FA33 		add	r3, r3, #128000
 131 0026 1A6C     		ldr	r2, [r3, #64]
 132 0028 42F40032 		orr	r2, r2, #131072
ARM GAS  /var/folders/c7/njqfq59n5tx5xn87mx7dh9jh0000gn/T//ccTIlyY9.s 			page 5


 133 002c 1A64     		str	r2, [r3, #64]
 134 002e 1A6C     		ldr	r2, [r3, #64]
 135 0030 02F40032 		and	r2, r2, #131072
 136 0034 0192     		str	r2, [sp, #4]
 137 0036 019A     		ldr	r2, [sp, #4]
 138              	.LBE2:
 139              	.LBB3:
  81:Src/usart.c   ****     /**USART2 GPIO Configuration    
 140              		.loc 1 81 0
 141 0038 0291     		str	r1, [sp, #8]
 142 003a 1A6B     		ldr	r2, [r3, #48]
 143 003c 42F00102 		orr	r2, r2, #1
 144 0040 1A63     		str	r2, [r3, #48]
 145 0042 1B6B     		ldr	r3, [r3, #48]
 146 0044 03F00103 		and	r3, r3, #1
 147 0048 0293     		str	r3, [sp, #8]
 148 004a 029B     		ldr	r3, [sp, #8]
 149              	.LBE3:
  86:Src/usart.c   ****     GPIO_InitStruct.Mode = GPIO_MODE_AF_PP;
 150              		.loc 1 86 0
 151 004c 0C23     		movs	r3, #12
 152 004e 0393     		str	r3, [sp, #12]
  87:Src/usart.c   ****     GPIO_InitStruct.Pull = GPIO_PULLUP;
 153              		.loc 1 87 0
 154 0050 0223     		movs	r3, #2
 155 0052 0493     		str	r3, [sp, #16]
  88:Src/usart.c   ****     GPIO_InitStruct.Speed = GPIO_SPEED_FREQ_VERY_HIGH;
 156              		.loc 1 88 0
 157 0054 0123     		movs	r3, #1
 158 0056 0593     		str	r3, [sp, #20]
  89:Src/usart.c   ****     GPIO_InitStruct.Alternate = GPIO_AF7_USART2;
 159              		.loc 1 89 0
 160 0058 0323     		movs	r3, #3
 161 005a 0693     		str	r3, [sp, #24]
  90:Src/usart.c   ****     HAL_GPIO_Init(GPIOA, &GPIO_InitStruct);
 162              		.loc 1 90 0
 163 005c 0723     		movs	r3, #7
 164 005e 0793     		str	r3, [sp, #28]
  91:Src/usart.c   **** 
 165              		.loc 1 91 0
 166 0060 03A9     		add	r1, sp, #12
 167 0062 0348     		ldr	r0, .L11+4
 168              	.LVL5:
 169 0064 FFF7FEFF 		bl	HAL_GPIO_Init
 170              	.LVL6:
 171              		.loc 1 97 0
 172 0068 D6E7     		b	.L7
 173              	.L12:
 174 006a 00BF     		.align	2
 175              	.L11:
 176 006c 00440040 		.word	1073759232
 177 0070 00000240 		.word	1073872896
 178              		.cfi_endproc
 179              	.LFE127:
 181              		.section	.text.HAL_UART_MspDeInit,"ax",%progbits
 182              		.align	1
 183              		.global	HAL_UART_MspDeInit
ARM GAS  /var/folders/c7/njqfq59n5tx5xn87mx7dh9jh0000gn/T//ccTIlyY9.s 			page 6


 184              		.syntax unified
 185              		.thumb
 186              		.thumb_func
 187              		.fpu fpv4-sp-d16
 189              	HAL_UART_MspDeInit:
 190              	.LFB128:
  98:Src/usart.c   **** 
  99:Src/usart.c   **** void HAL_UART_MspDeInit(UART_HandleTypeDef* uartHandle)
 100:Src/usart.c   **** {
 191              		.loc 1 100 0
 192              		.cfi_startproc
 193              		@ args = 0, pretend = 0, frame = 0
 194              		@ frame_needed = 0, uses_anonymous_args = 0
 195              	.LVL7:
 196 0000 08B5     		push	{r3, lr}
 197              	.LCFI5:
 198              		.cfi_def_cfa_offset 8
 199              		.cfi_offset 3, -8
 200              		.cfi_offset 14, -4
 101:Src/usart.c   **** 
 102:Src/usart.c   ****   if(uartHandle->Instance==USART2)
 201              		.loc 1 102 0
 202 0002 0268     		ldr	r2, [r0]
 203 0004 064B     		ldr	r3, .L17
 204 0006 9A42     		cmp	r2, r3
 205 0008 00D0     		beq	.L16
 206              	.LVL8:
 207              	.L13:
 103:Src/usart.c   ****   {
 104:Src/usart.c   ****   /* USER CODE BEGIN USART2_MspDeInit 0 */
 105:Src/usart.c   **** 
 106:Src/usart.c   ****   /* USER CODE END USART2_MspDeInit 0 */
 107:Src/usart.c   ****     /* Peripheral clock disable */
 108:Src/usart.c   ****     __HAL_RCC_USART2_CLK_DISABLE();
 109:Src/usart.c   ****   
 110:Src/usart.c   ****     /**USART2 GPIO Configuration    
 111:Src/usart.c   ****     PA2     ------> USART2_TX
 112:Src/usart.c   ****     PA3     ------> USART2_RX 
 113:Src/usart.c   ****     */
 114:Src/usart.c   ****     HAL_GPIO_DeInit(GPIOA, USART_TX_Pin|USART_RX_Pin);
 115:Src/usart.c   **** 
 116:Src/usart.c   ****   /* USER CODE BEGIN USART2_MspDeInit 1 */
 117:Src/usart.c   **** 
 118:Src/usart.c   ****   /* USER CODE END USART2_MspDeInit 1 */
 119:Src/usart.c   ****   }
 120:Src/usart.c   **** } 
 208              		.loc 1 120 0
 209 000a 08BD     		pop	{r3, pc}
 210              	.LVL9:
 211              	.L16:
 108:Src/usart.c   ****   
 212              		.loc 1 108 0
 213 000c 054A     		ldr	r2, .L17+4
 214 000e 136C     		ldr	r3, [r2, #64]
 215 0010 23F40033 		bic	r3, r3, #131072
 216 0014 1364     		str	r3, [r2, #64]
 114:Src/usart.c   **** 
ARM GAS  /var/folders/c7/njqfq59n5tx5xn87mx7dh9jh0000gn/T//ccTIlyY9.s 			page 7


 217              		.loc 1 114 0
 218 0016 0C21     		movs	r1, #12
 219 0018 0348     		ldr	r0, .L17+8
 220              	.LVL10:
 221 001a FFF7FEFF 		bl	HAL_GPIO_DeInit
 222              	.LVL11:
 223              		.loc 1 120 0
 224 001e F4E7     		b	.L13
 225              	.L18:
 226              		.align	2
 227              	.L17:
 228 0020 00440040 		.word	1073759232
 229 0024 00380240 		.word	1073887232
 230 0028 00000240 		.word	1073872896
 231              		.cfi_endproc
 232              	.LFE128:
 234              		.comm	huart2,64,4
 235              		.text
 236              	.Letext0:
 237              		.file 2 "/usr/local/Cellar/gcc-arm-none-eabi/20180627/arm-none-eabi/include/machine/_default_types
 238              		.file 3 "/usr/local/Cellar/gcc-arm-none-eabi/20180627/arm-none-eabi/include/sys/_stdint.h"
 239              		.file 4 "Drivers/CMSIS/Include/core_cm4.h"
 240              		.file 5 "Drivers/CMSIS/Device/ST/STM32F4xx/Include/system_stm32f4xx.h"
 241              		.file 6 "Drivers/CMSIS/Device/ST/STM32F4xx/Include/stm32f411xe.h"
 242              		.file 7 "/usr/local/Cellar/gcc-arm-none-eabi/20180627/arm-none-eabi/include/sys/lock.h"
 243              		.file 8 "/usr/local/Cellar/gcc-arm-none-eabi/20180627/arm-none-eabi/include/sys/_types.h"
 244              		.file 9 "/usr/local/Cellar/gcc-arm-none-eabi/20180627/lib/gcc/arm-none-eabi/7.3.1/include/stddef.h
 245              		.file 10 "/usr/local/Cellar/gcc-arm-none-eabi/20180627/arm-none-eabi/include/sys/reent.h"
 246              		.file 11 "Drivers/STM32F4xx_HAL_Driver/Inc/stm32f4xx_hal_def.h"
 247              		.file 12 "Drivers/STM32F4xx_HAL_Driver/Inc/stm32f4xx_hal_gpio.h"
 248              		.file 13 "Drivers/STM32F4xx_HAL_Driver/Inc/stm32f4xx_hal_dma.h"
 249              		.file 14 "Drivers/STM32F4xx_HAL_Driver/Inc/stm32f4xx_hal_uart.h"
 250              		.file 15 "Inc/usart.h"
 251              		.file 16 "Inc/main.h"
ARM GAS  /var/folders/c7/njqfq59n5tx5xn87mx7dh9jh0000gn/T//ccTIlyY9.s 			page 8

